target datalayout = "e-m:e-p270:32:32-p271:32:32-p272:64:64-i64:64-i128:128-f80:128-n8:16:32:64-S128"
target triple = "x86_64-unknown-linux-gnu"

%struct.Chardev = type { %struct.Object, %struct.QemuMutex, ptr, ptr, ptr, i32, i32, i8, ptr, ptr, [1 x i64] }
%struct.Object = type { ptr, ptr, ptr, i32, ptr }
%struct.QemuMutex = type { %union.pthread_mutex_t, i8 }
%union.pthread_mutex_t = type { %struct.__pthread_mutex_s }
%struct.__pthread_mutex_s = type { i32, i32, i32, i32, i32, i16, i16, %struct.__pthread_internal_list }
%struct.__pthread_internal_list = type { ptr, ptr }

@replay_mode = external global i32, align 4
@.str.1 = private unnamed_addr constant [14 x i8] c"offset <= len\00", align 1
@.str.2 = private unnamed_addr constant [23 x i8] c"../qemu/chardev/char.c\00", align 1
@__PRETTY_FUNCTION__.qemu_chr_write = private unnamed_addr constant [59 x i8] c"int qemu_chr_write(Chardev *, const uint8_t *, int, _Bool)\00", align 1

; Function Attrs: nounwind sspstrong uwtable
define internal i32 @test_bit(i64 noundef %nr, ptr noundef %addr) #0 {
entry:
  %nr.addr = alloca i64, align 8
  %addr.addr = alloca ptr, align 8
  store i64 %nr, ptr %nr.addr, align 8
  store ptr %addr, ptr %addr.addr, align 8
  %0 = load ptr, ptr %addr.addr, align 8
  %1 = load i64, ptr %nr.addr, align 8
  %div = udiv i64 %1, 64
  %arrayidx = getelementptr i64, ptr %0, i64 %div
  %2 = load i64, ptr %arrayidx, align 8
  %3 = load i64, ptr %nr.addr, align 8
  %and = and i64 %3, 63
  %shr = lshr i64 %2, %and
  %and1 = and i64 1, %shr
  %conv = trunc i64 %and1 to i32
  ret i32 %conv
}

; Function Attrs: nounwind sspstrong uwtable
define dso_local zeroext i1 @qemu_chr_has_feature(ptr noundef %chr, i32 noundef %feature) #0 {
entry:
  %chr.addr = alloca ptr, align 8
  %feature.addr = alloca i32, align 4
  store ptr %chr, ptr %chr.addr, align 8
  store i32 %feature, ptr %feature.addr, align 4
  %0 = load i32, ptr %feature.addr, align 4
  %conv = zext i32 %0 to i64
  %1 = load ptr, ptr %chr.addr, align 8
  %features = getelementptr inbounds %struct.Chardev, ptr %1, i32 0, i32 10
  %arraydecay = getelementptr inbounds [1 x i64], ptr %features, i64 0, i64 0
  %call = call i32 @test_bit(i64 noundef %conv, ptr noundef %arraydecay)
  %tobool = icmp ne i32 %call, 0
  ret i1 %tobool
}

; Function Attrs: nounwind sspstrong uwtable
define dso_local i32 @qemu_chr_write(ptr noundef %s, ptr noundef %buf, i32 noundef %len, i1 noundef zeroext %write_all) #0 {
entry:
  %retval = alloca i32, align 4
  %s.addr = alloca ptr, align 8
  %buf.addr = alloca ptr, align 8
  %len.addr = alloca i32, align 4
  %write_all.addr = alloca i8, align 1
  %offset = alloca i32, align 4
  %res = alloca i32, align 4
  store ptr %s, ptr %s.addr, align 8
  store ptr %buf, ptr %buf.addr, align 8
  store i32 %len, ptr %len.addr, align 4
  %frombool = zext i1 %write_all to i8
  store i8 %frombool, ptr %write_all.addr, align 1
  store i32 0, ptr %offset, align 4
  %0 = load ptr, ptr %s.addr, align 8
  %call = call zeroext i1 @qemu_chr_has_feature(ptr noundef %0, i32 noundef 2)
  br i1 %call, label %land.lhs.true, label %if.end4

land.lhs.true:                                    ; preds = %entry
  %1 = load i32, ptr @replay_mode, align 4
  %cmp = icmp eq i32 %1, 2
  br i1 %cmp, label %if.then, label %if.end4

if.then:                                          ; preds = %land.lhs.true
  call void @replay_char_write_event_load(ptr noundef %res, ptr noundef %offset)
  %2 = load i32, ptr %offset, align 4
  %3 = load i32, ptr %len.addr, align 4
  %cmp1 = icmp sle i32 %2, %3
  br i1 %cmp1, label %if.then2, label %if.else

if.then2:                                         ; preds = %if.then
  br label %if.end

if.else:                                          ; preds = %if.then
  call void @__assert_fail(ptr noundef @.str.1, ptr noundef @.str.2, i32 noundef 169, ptr noundef @__PRETTY_FUNCTION__.qemu_chr_write) #10
  unreachable

if.end:                                           ; preds = %if.then2
  %4 = load ptr, ptr %s.addr, align 8
  %5 = load ptr, ptr %buf.addr, align 8
  %6 = load i32, ptr %offset, align 4
  %call3 = call i32 @qemu_chr_write_buffer(ptr noundef %4, ptr noundef %5, i32 noundef %6, ptr noundef %offset, i1 noundef zeroext true)
  %7 = load i32, ptr %res, align 4
  store i32 %7, ptr %retval, align 4
  br label %return

if.end4:                                          ; preds = %land.lhs.true, %entry
  %8 = load ptr, ptr %s.addr, align 8
  %9 = load ptr, ptr %buf.addr, align 8
  %10 = load i32, ptr %len.addr, align 4
  %11 = load i8, ptr %write_all.addr, align 1
  %tobool = trunc i8 %11 to i1
  %call5 = call i32 @qemu_chr_write_buffer(ptr noundef %8, ptr noundef %9, i32 noundef %10, ptr noundef %offset, i1 noundef zeroext %tobool)
  store i32 %call5, ptr %res, align 4
  %12 = load ptr, ptr %s.addr, align 8
  %call6 = call zeroext i1 @qemu_chr_has_feature(ptr noundef %12, i32 noundef 2)
  br i1 %call6, label %land.lhs.true7, label %if.end10

land.lhs.true7:                                   ; preds = %if.end4
  %13 = load i32, ptr @replay_mode, align 4
  %cmp8 = icmp eq i32 %13, 1
  br i1 %cmp8, label %if.then9, label %if.end10

if.then9:                                         ; preds = %land.lhs.true7
  %14 = load i32, ptr %res, align 4
  %15 = load i32, ptr %offset, align 4
  call void @replay_char_write_event_save(i32 noundef %14, i32 noundef %15)
  br label %if.end10

if.end10:                                         ; preds = %if.then9, %land.lhs.true7, %if.end4
  %16 = load i32, ptr %res, align 4
  %cmp11 = icmp slt i32 %16, 0
  br i1 %cmp11, label %if.then12, label %if.end13

if.then12:                                        ; preds = %if.end10
  %17 = load i32, ptr %res, align 4
  store i32 %17, ptr %retval, align 4
  br label %return

if.end13:                                         ; preds = %if.end10
  %18 = load i32, ptr %offset, align 4
  store i32 %18, ptr %retval, align 4
  br label %return

return:                                           ; preds = %if.end13, %if.then12, %if.end
  %19 = load i32, ptr %retval, align 4
  ret i32 %19
}