; Function Attrs: nounwind sspstrong uwtable
define dso_local i32 @qemu_chr_write(ptr noundef %s, ptr noundef %buf, i32 noundef %len, i1 noundef zeroext %write_all) local_unnamed_addr #0 {
entry:
  %offset = alloca i32, align 4
  %res = alloca i32, align 4
  store i32 0, ptr %offset, align 4
  %features.i = getelementptr inbounds nuw i8, ptr %s, i64 144
  %0 = load i64, ptr %features.i, align 8
  %1 = and i64 %0, 4
  %tobool.i = icmp ne i64 %1, 0
  %2 = load i32, ptr @replay_mode, align 4
  %cmp = icmp eq i32 %2, 2
  %or.cond = select i1 %tobool.i, i1 %cmp, i1 false
  br i1 %or.cond, label %if.then, label %if.end4

if.then:                                          ; preds = %entry
  call void @replay_char_write_event_load(ptr noundef nonnull %res, ptr noundef nonnull %offset) #13
  %3 = load i32, ptr %offset, align 4
  %cmp1.not = icmp sgt i32 %3, %len
  br i1 %cmp1.not, label %if.else, label %if.end

if.else:                                          ; preds = %if.then
  call void @__assert_fail(ptr noundef nonnull @.str.1, ptr noundef nonnull @.str.2, i32 noundef 169, ptr noundef nonnull @__PRETTY_FUNCTION__.qemu_chr_write) #14
  unreachable

if.end:                                           ; preds = %if.then
  %call3 = call fastcc i32 @qemu_chr_write_buffer(ptr noundef nonnull %s, ptr noundef %buf, i32 noundef %3, ptr noundef %offset, i1 noundef zeroext true)
  %4 = load i32, ptr %res, align 4
  br label %return

if.end4:                                          ; preds = %entry
  %call5 = call fastcc i32 @qemu_chr_write_buffer(ptr noundef nonnull %s, ptr noundef %buf, i32 noundef %len, ptr noundef %offset, i1 noundef zeroext %write_all)
  %5 = load i64, ptr %features.i, align 8
  %6 = and i64 %5, 4
  %tobool.i9 = icmp ne i64 %6, 0
  %7 = load i32, ptr @replay_mode, align 4
  %cmp8 = icmp eq i32 %7, 1
  %or.cond1 = select i1 %tobool.i9, i1 %cmp8, i1 false
  %.pre = load i32, ptr %offset, align 4
  br i1 %or.cond1, label %if.then9, label %if.end10

if.then9:                                         ; preds = %if.end4
  tail call void @replay_char_write_event_save(i32 noundef %call5, i32 noundef %.pre) #13
  br label %if.end10

if.end10:                                         ; preds = %if.then9, %if.end4
  %cmp11 = icmp slt i32 %call5, 0
  %spec.select = select i1 %cmp11, i32 %call5, i32 %.pre
  br label %return

return:                                           ; preds = %if.end10, %if.end
  %retval.0 = phi i32 [ %4, %if.end ], [ %spec.select, %if.end10 ]
  ret i32 %retval.0
}